target datalayout = "e-m:e-p270:32:32-p271:32:32-p272:64:64-i64:64-i128:128-f80:128-n8:16:32:64-S128"
target triple = "x86_64-unknown-linux-gnu"

%"class.std::variant" = type { %"struct.std::__detail::__variant::_Variant_base.base", [7 x i8] }
%"struct.std::__detail::__variant::_Variant_base.base" = type { %"struct.std::__detail::__variant::_Move_assign_base.base" }
%"struct.std::__detail::__variant::_Move_assign_base.base" = type { %"struct.std::__detail::__variant::_Copy_assign_base.base" }
%"struct.std::__detail::__variant::_Copy_assign_base.base" = type { %"struct.std::__detail::__variant::_Move_ctor_base.base" }
%"struct.std::__detail::__variant::_Move_ctor_base.base" = type { %"struct.std::__detail::__variant::_Copy_ctor_base.base" }
%"struct.std::__detail::__variant::_Copy_ctor_base.base" = type { %"struct.std::__detail::__variant::_Variant_storage.base" }
%"struct.std::__detail::__variant::_Variant_storage.base" = type <{ %"union.std::__detail::__variant::_Variadic_union", i8 }>
%"union.std::__detail::__variant::_Variadic_union" = type { %"union.std::__detail::__variant::_Variadic_union.202" }
%"union.std::__detail::__variant::_Variadic_union.202" = type { %"union.std::__detail::__variant::_Variadic_union.204" }
%"union.std::__detail::__variant::_Variadic_union.204" = type { %"struct.std::__detail::__variant::_Uninitialized.205" }
%"struct.std::__detail::__variant::_Uninitialized.205" = type { ptr }
%"class.hermes::ESTree::Node" = type { %"class.llvh::ilist_node", i32, i32, %"class.llvh::SMRange", %"class.llvh::SMLoc" }
%"class.llvh::ilist_node" = type { %"class.llvh::ilist_node_impl" }
%"class.llvh::ilist_node_impl" = type { %"class.llvh::ilist_node_base" }
%"class.llvh::ilist_node_base" = type { ptr, ptr }
%"class.llvh::SMRange" = type { %"class.llvh::SMLoc", %"class.llvh::SMLoc" }
%"class.llvh::SMLoc" = type { ptr }
%"class.hermes::ESTree::FunctionLikeNode.base" = type <{ %"class.hermes::ESTree::Node", %"class.hermes::ESTree::FunctionLikeDecoration.base" }>
%"class.hermes::ESTree::FunctionLikeDecoration.base" = type <{ ptr, i32, i32, i8 }>
%"class.llvh::simple_ilist" = type { %"class.llvh::ilist_sentinel" }
%"class.llvh::ilist_sentinel" = type { %"class.llvh::ilist_node_impl" }
%"class.hermes::ESTree::FunctionDeclarationNode" = type <{ %"class.hermes::ESTree::FunctionLikeNode.base", [7 x i8], ptr, %"class.llvh::simple_ilist", ptr, ptr, ptr, ptr, i8, i8, [6 x i8] }>
%"class.llvh::ilist_iterator" = type { ptr }

; Function Attrs: mustprogress nounwind uwtable
define linkonce_odr hidden noundef ptr @_ZNK4llvh15ilist_node_baseILb0EE7getNextEv(ptr noundef nonnull align 8 dereferenceable(16) %this) #0 comdat align 2 {
entry:
  %this.addr = alloca ptr, align 8
  store ptr %this, ptr %this.addr, align 8
  %this1 = load ptr, ptr %this.addr, align 8
  %Next = getelementptr inbounds %"class.llvh::ilist_node_base", ptr %this1, i32 0, i32 1
  %0 = load ptr, ptr %Next, align 8
  ret ptr %0
}

; Function Attrs: mustprogress nounwind uwtable
define linkonce_odr hidden noundef ptr @_ZN4llvh12ilist_detail10NodeAccess11getValuePtrINS0_12node_optionsIN6hermes6ESTree4NodeELb0ELb0EvEEEENT_7pointerEPNS_15ilist_node_implIS8_EE(ptr noundef %N) #0 comdat align 2 {
entry:
  %N.addr = alloca ptr, align 8
  store ptr %N, ptr %N.addr, align 8
  %0 = load ptr, ptr %N.addr, align 8
  ret ptr %0
}

; Function Attrs: mustprogress nounwind uwtable
define linkonce_odr hidden noundef ptr @_ZN4llvh15ilist_node_implINS_12ilist_detail12node_optionsIN6hermes6ESTree4NodeELb0ELb0EvEEE7getNextEv(ptr noundef nonnull align 8 dereferenceable(16) %this) #0 comdat align 2 {
entry:
  %this.addr = alloca ptr, align 8
  store ptr %this, ptr %this.addr, align 8
  %this1 = load ptr, ptr %this.addr, align 8
  %call = call noundef ptr @_ZNK4llvh15ilist_node_baseILb0EE7getNextEv(ptr noundef nonnull align 8 dereferenceable(16) %this1)
  ret ptr %call
}

; Function Attrs: mustprogress nounwind uwtable
define linkonce_odr hidden noundef ptr @_ZN4llvh12ilist_detail18SpecificNodeAccessINS0_12node_optionsIN6hermes6ESTree4NodeELb0ELb0EvEEE11getValuePtrEPNS_15ilist_node_implIS6_EE(ptr noundef %N) #0 comdat align 2 {
entry:
  %N.addr = alloca ptr, align 8
  store ptr %N, ptr %N.addr, align 8
  %0 = load ptr, ptr %N.addr, align 8
  %call = call noundef ptr @_ZN4llvh12ilist_detail10NodeAccess11getValuePtrINS0_12node_optionsIN6hermes6ESTree4NodeELb0ELb0EvEEEENT_7pointerEPNS_15ilist_node_implIS8_EE(ptr noundef %0)
  ret ptr %call
}

; Function Attrs: mustprogress nounwind uwtable
define linkonce_odr hidden void @_ZN4llvh14ilist_iteratorINS_12ilist_detail12node_optionsIN6hermes6ESTree4NodeELb0ELb0EvEELb0ELb0EEC2ERNS_15ilist_node_implIS6_EE(ptr noundef nonnull align 8 dereferenceable(8) %this, ptr noundef nonnull align 8 dereferenceable(16) %N) unnamed_addr #0 comdat align 2 {
entry:
  %this.addr = alloca ptr, align 8
  %N.addr = alloca ptr, align 8
  store ptr %this, ptr %this.addr, align 8
  store ptr %N, ptr %N.addr, align 8
  %this1 = load ptr, ptr %this.addr, align 8
  %NodePtr = getelementptr inbounds %"class.llvh::ilist_iterator", ptr %this1, i32 0, i32 0
  %0 = load ptr, ptr %N.addr, align 8
  store ptr %0, ptr %NodePtr, align 8
  ret void
}

; Function Attrs: mustprogress nounwind uwtable
define linkonce_odr hidden noundef nonnull align 8 dereferenceable(8) ptr @_ZN4llvh14ilist_iteratorINS_12ilist_detail12node_optionsIN6hermes6ESTree4NodeELb0ELb0EvEELb0ELb0EEppEv(ptr noundef nonnull align 8 dereferenceable(8) %this) #0 comdat align 2 {
entry:
  %this.addr = alloca ptr, align 8
  store ptr %this, ptr %this.addr, align 8
  %this1 = load ptr, ptr %this.addr, align 8
  %NodePtr = getelementptr inbounds %"class.llvh::ilist_iterator", ptr %this1, i32 0, i32 0
  %0 = load ptr, ptr %NodePtr, align 8
  %call = call noundef ptr @_ZN4llvh15ilist_node_implINS_12ilist_detail12node_optionsIN6hermes6ESTree4NodeELb0ELb0EvEEE7getNextEv(ptr noundef nonnull align 8 dereferenceable(16) %0)
  %NodePtr2 = getelementptr inbounds %"class.llvh::ilist_iterator", ptr %this1, i32 0, i32 0
  store ptr %call, ptr %NodePtr2, align 8
  ret ptr %this1
}

; Function Attrs: mustprogress nounwind uwtable
define linkonce_odr hidden noundef nonnull align 8 dereferenceable(48) ptr @_ZNK4llvh14ilist_iteratorINS_12ilist_detail12node_optionsIN6hermes6ESTree4NodeELb0ELb0EvEELb0ELb0EEdeEv(ptr noundef nonnull align 8 dereferenceable(8) %this) #0 comdat align 2 {
entry:
  %this.addr = alloca ptr, align 8
  store ptr %this, ptr %this.addr, align 8
  %this1 = load ptr, ptr %this.addr, align 8
  %NodePtr = getelementptr inbounds %"class.llvh::ilist_iterator", ptr %this1, i32 0, i32 0
  %0 = load ptr, ptr %NodePtr, align 8
  %call = call noundef ptr @_ZN4llvh12ilist_detail18SpecificNodeAccessINS0_12node_optionsIN6hermes6ESTree4NodeELb0ELb0EvEEE11getValuePtrEPNS_15ilist_node_implIS6_EE(ptr noundef %0)
  ret ptr %call
}

; Function Attrs: mustprogress nounwind uwtable
define linkonce_odr hidden noundef zeroext i1 @_ZN4llvhneERKNS_14ilist_iteratorINS_12ilist_detail12node_optionsIN6hermes6ESTree4NodeELb0ELb0EvEELb0ELb0EEES9_(ptr noundef nonnull align 8 dereferenceable(8) %LHS, ptr noundef nonnull align 8 dereferenceable(8) %RHS) #0 comdat {
entry:
  %LHS.addr = alloca ptr, align 8
  %RHS.addr = alloca ptr, align 8
  store ptr %LHS, ptr %LHS.addr, align 8
  store ptr %RHS, ptr %RHS.addr, align 8
  %0 = load ptr, ptr %LHS.addr, align 8
  %NodePtr = getelementptr inbounds %"class.llvh::ilist_iterator", ptr %0, i32 0, i32 0
  %1 = load ptr, ptr %NodePtr, align 8
  %2 = load ptr, ptr %RHS.addr, align 8
  %NodePtr1 = getelementptr inbounds %"class.llvh::ilist_iterator", ptr %2, i32 0, i32 0
  %3 = load ptr, ptr %NodePtr1, align 8
  %cmp = icmp ne ptr %1, %3
  ret i1 %cmp
}

; Function Attrs: mustprogress nounwind uwtable
define linkonce_odr hidden ptr @_ZN4llvh12simple_ilistIN6hermes6ESTree4NodeEJEE3endEv(ptr noundef nonnull align 8 dereferenceable(16) %this) #0 comdat align 2 {
entry:
  %retval = alloca %"class.llvh::ilist_iterator", align 8
  %this.addr = alloca ptr, align 8
  store ptr %this, ptr %this.addr, align 8
  %this1 = load ptr, ptr %this.addr, align 8
  %Sentinel = getelementptr inbounds %"class.llvh::simple_ilist", ptr %this1, i32 0, i32 0
  call void @_ZN4llvh14ilist_iteratorINS_12ilist_detail12node_optionsIN6hermes6ESTree4NodeELb0ELb0EvEELb0ELb0EEC2ERNS_15ilist_node_implIS6_EE(ptr noundef nonnull align 8 dereferenceable(8) %retval, ptr noundef nonnull align 8 dereferenceable(16) %Sentinel)
  %coerce.dive = getelementptr inbounds %"class.llvh::ilist_iterator", ptr %retval, i32 0, i32 0
  %0 = load ptr, ptr %coerce.dive, align 8
  ret ptr %0
}

; Function Attrs: mustprogress nounwind uwtable
define linkonce_odr hidden ptr @_ZN4llvh12simple_ilistIN6hermes6ESTree4NodeEJEE5beginEv(ptr noundef nonnull align 8 dereferenceable(16) %this) #0 comdat align 2 {
entry:
  %retval = alloca %"class.llvh::ilist_iterator", align 8
  %this.addr = alloca ptr, align 8
  %ref.tmp = alloca %"class.llvh::ilist_iterator", align 8
  store ptr %this, ptr %this.addr, align 8
  %this1 = load ptr, ptr %this.addr, align 8
  %Sentinel = getelementptr inbounds %"class.llvh::simple_ilist", ptr %this1, i32 0, i32 0
  call void @_ZN4llvh14ilist_iteratorINS_12ilist_detail12node_optionsIN6hermes6ESTree4NodeELb0ELb0EvEELb0ELb0EEC2ERNS_15ilist_node_implIS6_EE(ptr noundef nonnull align 8 dereferenceable(8) %ref.tmp, ptr noundef nonnull align 8 dereferenceable(16) %Sentinel)
  %call = call noundef nonnull align 8 dereferenceable(8) ptr @_ZN4llvh14ilist_iteratorINS_12ilist_detail12node_optionsIN6hermes6ESTree4NodeELb0ELb0EvEELb0ELb0EEppEv(ptr noundef nonnull align 8 dereferenceable(8) %ref.tmp)
  call void @llvm.memcpy.p0.p0.i64(ptr align 8 %retval, ptr align 8 %call, i64 8, i1 false)
  %coerce.dive = getelementptr inbounds %"class.llvh::ilist_iterator", ptr %retval, i32 0, i32 0
  %0 = load ptr, ptr %coerce.dive, align 8
  ret ptr %0
}

; Function Attrs: mustprogress nounwind uwtable
define internal void @_ZN6hermes6ESTree24RecursiveVisitorDispatchINS_12_GLOBAL__N_119DependencyExtractorELb1EE5visitERS3_bPNS0_4NodeE(ptr noundef nonnull align 8 dereferenceable(145) %0, i1 noundef zeroext %1, ptr noundef %2) #0 align 2 {
entry:
  %.addr = alloca ptr, align 8
  %.addr1 = alloca i8, align 1
  %.addr2 = alloca ptr, align 8
  store ptr %0, ptr %.addr, align 8
  %frombool = zext i1 %1 to i8
  store i8 %frombool, ptr %.addr1, align 1
  store ptr %2, ptr %.addr2, align 8
  ret void
}

; Function Attrs: mustprogress nounwind uwtable
define internal void @_ZN6hermes6ESTree24RecursiveVisitorDispatchINS_12_GLOBAL__N_119DependencyExtractorELb1EE5visitERS3_RN4llvh12simple_ilistINS0_4NodeEJEEEPS8_(ptr noundef nonnull align 8 dereferenceable(145) %v, ptr noundef nonnull align 8 dereferenceable(16) %list, ptr noundef %parent) #0 align 2 {
entry:
  %v.addr = alloca ptr, align 8
  %list.addr = alloca ptr, align 8
  %parent.addr = alloca ptr, align 8
  %__range4 = alloca ptr, align 8
  %__begin4 = alloca %"class.llvh::ilist_iterator", align 8
  %__end4 = alloca %"class.llvh::ilist_iterator", align 8
  %node = alloca ptr, align 8
  %coerce = alloca %"class.std::variant", align 8
  store ptr %v, ptr %v.addr, align 8
  store ptr %list, ptr %list.addr, align 8
  store ptr %parent, ptr %parent.addr, align 8
  %0 = load ptr, ptr %list.addr, align 8
  store ptr %0, ptr %__range4, align 8
  %1 = load ptr, ptr %__range4, align 8
  %call = call ptr @_ZN4llvh12simple_ilistIN6hermes6ESTree4NodeEJEE5beginEv(ptr noundef nonnull align 8 dereferenceable(16) %1)
  %coerce.dive = getelementptr inbounds %"class.llvh::ilist_iterator", ptr %__begin4, i32 0, i32 0
  store ptr %call, ptr %coerce.dive, align 8
  %2 = load ptr, ptr %__range4, align 8
  %call1 = call ptr @_ZN4llvh12simple_ilistIN6hermes6ESTree4NodeEJEE3endEv(ptr noundef nonnull align 8 dereferenceable(16) %2)
  %coerce.dive2 = getelementptr inbounds %"class.llvh::ilist_iterator", ptr %__end4, i32 0, i32 0
  store ptr %call1, ptr %coerce.dive2, align 8
  br label %for.cond

for.cond:                                         ; preds = %for.inc, %entry
  %call3 = call noundef zeroext i1 @_ZN4llvhneERKNS_14ilist_iteratorINS_12ilist_detail12node_optionsIN6hermes6ESTree4NodeELb0ELb0EvEELb0ELb0EEES9_(ptr noundef nonnull align 8 dereferenceable(8) %__begin4, ptr noundef nonnull align 8 dereferenceable(8) %__end4)
  br i1 %call3, label %for.body, label %for.end

for.body:                                         ; preds = %for.cond
  %call4 = call noundef nonnull align 8 dereferenceable(48) ptr @_ZNK4llvh14ilist_iteratorINS_12ilist_detail12node_optionsIN6hermes6ESTree4NodeELb0ELb0EvEELb0ELb0EEdeEv(ptr noundef nonnull align 8 dereferenceable(8) %__begin4)
  store ptr %call4, ptr %node, align 8
  %3 = load ptr, ptr %v.addr, align 8
  %4 = load ptr, ptr %node, align 8
  %5 = load ptr, ptr %parent.addr, align 8
  %call5 = call { ptr, i8 } @_ZN6hermes6ESTree24RecursiveVisitorDispatchINS_12_GLOBAL__N_119DependencyExtractorELb1EE5visitERS3_PNS0_4NodeES7_(ptr noundef nonnull align 8 dereferenceable(145) %3, ptr noundef %4, ptr noundef %5)
  %6 = getelementptr inbounds { ptr, i8 }, ptr %coerce, i32 0, i32 0
  %7 = extractvalue { ptr, i8 } %call5, 0
  store ptr %7, ptr %6, align 8
  %8 = getelementptr inbounds { ptr, i8 }, ptr %coerce, i32 0, i32 1
  %9 = extractvalue { ptr, i8 } %call5, 1
  store i8 %9, ptr %8, align 8
  br label %for.inc

for.inc:                                          ; preds = %for.body
  %call6 = call noundef nonnull align 8 dereferenceable(8) ptr @_ZN4llvh14ilist_iteratorINS_12ilist_detail12node_optionsIN6hermes6ESTree4NodeELb0ELb0EvEELb0ELb0EEppEv(ptr noundef nonnull align 8 dereferenceable(8) %__begin4)
  br label %for.cond

for.end:                                          ; preds = %for.cond
  ret void
}

; Function Attrs: mustprogress nounwind uwtable
define internal void @_ZN6hermes6ESTree24RecursiveVisitorDispatchINS_12_GLOBAL__N_119DependencyExtractorELb1EE13visitChildrenERS3_PNS0_23FunctionDeclarationNodeE(ptr noundef nonnull align 8 dereferenceable(145) %v, ptr noundef %node) #0 align 2 {
entry:
  %v.addr = alloca ptr, align 8
  %node.addr = alloca ptr, align 8
  %coerce = alloca %"class.std::variant", align 8
  %coerce2 = alloca %"class.std::variant", align 8
  %coerce4 = alloca %"class.std::variant", align 8
  %coerce6 = alloca %"class.std::variant", align 8
  %coerce8 = alloca %"class.std::variant", align 8
  store ptr %v, ptr %v.addr, align 8
  store ptr %node, ptr %node.addr, align 8
  %0 = load ptr, ptr %v.addr, align 8
  %1 = load ptr, ptr %node.addr, align 8
  %_id = getelementptr inbounds %"class.hermes::ESTree::FunctionDeclarationNode", ptr %1, i32 0, i32 2
  %2 = load ptr, ptr %_id, align 8
  %3 = load ptr, ptr %node.addr, align 8
  %call = call { ptr, i8 } @_ZN6hermes6ESTree24RecursiveVisitorDispatchINS_12_GLOBAL__N_119DependencyExtractorELb1EE5visitERS3_PNS0_4NodeES7_(ptr noundef nonnull align 8 dereferenceable(145) %0, ptr noundef %2, ptr noundef %3)
  %4 = getelementptr inbounds { ptr, i8 }, ptr %coerce, i32 0, i32 0
  %5 = extractvalue { ptr, i8 } %call, 0
  store ptr %5, ptr %4, align 8
  %6 = getelementptr inbounds { ptr, i8 }, ptr %coerce, i32 0, i32 1
  %7 = extractvalue { ptr, i8 } %call, 1
  store i8 %7, ptr %6, align 8
  %8 = load ptr, ptr %v.addr, align 8
  %9 = load ptr, ptr %node.addr, align 8
  %_params = getelementptr inbounds %"class.hermes::ESTree::FunctionDeclarationNode", ptr %9, i32 0, i32 3
  %10 = load ptr, ptr %node.addr, align 8
  call void @_ZN6hermes6ESTree24RecursiveVisitorDispatchINS_12_GLOBAL__N_119DependencyExtractorELb1EE5visitERS3_RN4llvh12simple_ilistINS0_4NodeEJEEEPS8_(ptr noundef nonnull align 8 dereferenceable(145) %8, ptr noundef nonnull align 8 dereferenceable(16) %_params, ptr noundef %10)
  %11 = load ptr, ptr %v.addr, align 8
  %12 = load ptr, ptr %node.addr, align 8
  %_body = getelementptr inbounds %"class.hermes::ESTree::FunctionDeclarationNode", ptr %12, i32 0, i32 4
  %13 = load ptr, ptr %_body, align 8
  %14 = load ptr, ptr %node.addr, align 8
  %call1 = call { ptr, i8 } @_ZN6hermes6ESTree24RecursiveVisitorDispatchINS_12_GLOBAL__N_119DependencyExtractorELb1EE5visitERS3_PNS0_4NodeES7_(ptr noundef nonnull align 8 dereferenceable(145) %11, ptr noundef %13, ptr noundef %14)
  %15 = getelementptr inbounds { ptr, i8 }, ptr %coerce2, i32 0, i32 0
  %16 = extractvalue { ptr, i8 } %call1, 0
  store ptr %16, ptr %15, align 8
  %17 = getelementptr inbounds { ptr, i8 }, ptr %coerce2, i32 0, i32 1
  %18 = extractvalue { ptr, i8 } %call1, 1
  store i8 %18, ptr %17, align 8
  %19 = load ptr, ptr %v.addr, align 8
  %20 = load ptr, ptr %node.addr, align 8
  %_typeParameters = getelementptr inbounds %"class.hermes::ESTree::FunctionDeclarationNode", ptr %20, i32 0, i32 5
  %21 = load ptr, ptr %_typeParameters, align 8
  %22 = load ptr, ptr %node.addr, align 8
  %call3 = call { ptr, i8 } @_ZN6hermes6ESTree24RecursiveVisitorDispatchINS_12_GLOBAL__N_119DependencyExtractorELb1EE5visitERS3_PNS0_4NodeES7_(ptr noundef nonnull align 8 dereferenceable(145) %19, ptr noundef %21, ptr noundef %22)
  %23 = getelementptr inbounds { ptr, i8 }, ptr %coerce4, i32 0, i32 0
  %24 = extractvalue { ptr, i8 } %call3, 0
  store ptr %24, ptr %23, align 8
  %25 = getelementptr inbounds { ptr, i8 }, ptr %coerce4, i32 0, i32 1
  %26 = extractvalue { ptr, i8 } %call3, 1
  store i8 %26, ptr %25, align 8
  %27 = load ptr, ptr %v.addr, align 8
  %28 = load ptr, ptr %node.addr, align 8
  %_returnType = getelementptr inbounds %"class.hermes::ESTree::FunctionDeclarationNode", ptr %28, i32 0, i32 6
  %29 = load ptr, ptr %_returnType, align 8
  %30 = load ptr, ptr %node.addr, align 8
  %call5 = call { ptr, i8 } @_ZN6hermes6ESTree24RecursiveVisitorDispatchINS_12_GLOBAL__N_119DependencyExtractorELb1EE5visitERS3_PNS0_4NodeES7_(ptr noundef nonnull align 8 dereferenceable(145) %27, ptr noundef %29, ptr noundef %30)
  %31 = getelementptr inbounds { ptr, i8 }, ptr %coerce6, i32 0, i32 0
  %32 = extractvalue { ptr, i8 } %call5, 0
  store ptr %32, ptr %31, align 8
  %33 = getelementptr inbounds { ptr, i8 }, ptr %coerce6, i32 0, i32 1
  %34 = extractvalue { ptr, i8 } %call5, 1
  store i8 %34, ptr %33, align 8
  %35 = load ptr, ptr %v.addr, align 8
  %36 = load ptr, ptr %node.addr, align 8
  %_predicate = getelementptr inbounds %"class.hermes::ESTree::FunctionDeclarationNode", ptr %36, i32 0, i32 7
  %37 = load ptr, ptr %_predicate, align 8
  %38 = load ptr, ptr %node.addr, align 8
  %call7 = call { ptr, i8 } @_ZN6hermes6ESTree24RecursiveVisitorDispatchINS_12_GLOBAL__N_119DependencyExtractorELb1EE5visitERS3_PNS0_4NodeES7_(ptr noundef nonnull align 8 dereferenceable(145) %35, ptr noundef %37, ptr noundef %38)
  %39 = getelementptr inbounds { ptr, i8 }, ptr %coerce8, i32 0, i32 0
  %40 = extractvalue { ptr, i8 } %call7, 0
  store ptr %40, ptr %39, align 8
  %41 = getelementptr inbounds { ptr, i8 }, ptr %coerce8, i32 0, i32 1
  %42 = extractvalue { ptr, i8 } %call7, 1
  store i8 %42, ptr %41, align 8
  %43 = load ptr, ptr %v.addr, align 8
  %44 = load ptr, ptr %node.addr, align 8
  %_generator = getelementptr inbounds %"class.hermes::ESTree::FunctionDeclarationNode", ptr %44, i32 0, i32 8
  %45 = load i8, ptr %_generator, align 8
  %tobool = trunc i8 %45 to i1
  %46 = load ptr, ptr %node.addr, align 8
  call void @_ZN6hermes6ESTree24RecursiveVisitorDispatchINS_12_GLOBAL__N_119DependencyExtractorELb1EE5visitERS3_bPNS0_4NodeE(ptr noundef nonnull align 8 dereferenceable(145) %43, i1 noundef zeroext %tobool, ptr noundef %46)
  %47 = load ptr, ptr %v.addr, align 8
  %48 = load ptr, ptr %node.addr, align 8
  %_async = getelementptr inbounds %"class.hermes::ESTree::FunctionDeclarationNode", ptr %48, i32 0, i32 9
  %49 = load i8, ptr %_async, align 1
  %tobool10 = trunc i8 %49 to i1
  %50 = load ptr, ptr %node.addr, align 8
  call void @_ZN6hermes6ESTree24RecursiveVisitorDispatchINS_12_GLOBAL__N_119DependencyExtractorELb1EE5visitERS3_bPNS0_4NodeE(ptr noundef nonnull align 8 dereferenceable(145) %47, i1 noundef zeroext %tobool10, ptr noundef %50)
  ret void
}